target datalayout = "e-m:e-p270:32:32-p271:32:32-p272:64:64-i64:64-i128:128-f80:128-n8:16:32:64-S128"
target triple = "x86_64-pc-linux-gnu"

%struct.Cec_ParSat_t_ = type { i32, i32, i32, i32, i32, i32, i32, i32, i32, i32 }
%struct.Gia_Man_t_ = type { ptr, ptr, i32, i32, i32, i32, ptr, ptr, i32, i32, i32, ptr, ptr, %struct.Vec_Int_t_, %struct.Vec_Int_t_, i32, i32, i32, %struct.Vec_Int_t_, ptr, ptr, ptr, i32, i32, i32, i32, ptr, ptr, ptr, ptr, ptr, i32, i32, ptr, i32, ptr, ptr, ptr, ptr, ptr, ptr, ptr, ptr, ptr, ptr, ptr, ptr, ptr, ptr, ptr, ptr, ptr, ptr, %struct.Vec_Int_t_, %struct.Vec_Int_t_, ptr, ptr, ptr, ptr, ptr, ptr, ptr, ptr, ptr, ptr, ptr, ptr, ptr, ptr, ptr, ptr, ptr, ptr, ptr, ptr, ptr, i32, float, float, ptr, ptr, i32, ptr, ptr, ptr, ptr, ptr, ptr, ptr, ptr, ptr, ptr, ptr, ptr, ptr, ptr, ptr, i64, i64, ptr, ptr, i32, i32, i32, i32, i32, i32, i32, i32, i32, i32, i32, i32, ptr, ptr, ptr, ptr, ptr, ptr, ptr, ptr, i32, i32, i32, ptr, i32, i32, ptr, ptr, ptr, ptr, ptr, ptr, i32, i32, ptr, %struct.Vec_Int_t_, %struct.Vec_Int_t_, %struct.Vec_Int_t_, ptr, ptr, ptr, i32, i32, i32, i32, ptr, ptr, ptr, ptr, ptr }
%struct.Vec_Int_t_ = type { i32, i32, ptr }

; Function Attrs: nounwind uwtable
define ptr @Cec_ManSatSolving(ptr noundef %0, ptr noundef %1, i32 noundef %2) #0 {
  %4 = alloca ptr, align 8
  %5 = alloca ptr, align 8
  %6 = alloca i32, align 4
  %7 = alloca ptr, align 8
  %8 = alloca ptr, align 8
  store ptr %0, ptr %4, align 8, !tbaa !102
  store ptr %1, ptr %5, align 8, !tbaa !3
  store i32 %2, ptr %6, align 4, !tbaa !104
  call void @llvm.lifetime.start.p0(i64 8, ptr %7) #10
  call void @llvm.lifetime.start.p0(i64 8, ptr %8) #10
  %9 = call ptr (...) @Cec_ManPatStart()
  store ptr %9, ptr %8, align 8, !tbaa !105
  %10 = load ptr, ptr %5, align 8, !tbaa !3
  %11 = getelementptr inbounds nuw %struct.Cec_ParSat_t_, ptr %10, i32 0, i32 0
  %12 = load i32, ptr %11, align 4, !tbaa !8
  %13 = icmp eq i32 %12, -1
  br i1 %13, label %14, label %19

14:                                               ; preds = %3
  %15 = load ptr, ptr %8, align 8, !tbaa !105
  %16 = load ptr, ptr %4, align 8, !tbaa !102
  %17 = load ptr, ptr %5, align 8, !tbaa !3
  %18 = load i32, ptr %6, align 4, !tbaa !104
  call void @Cec_ManSatSolve(ptr noundef %15, ptr noundef %16, ptr noundef %17, ptr noundef null, ptr noundef null, ptr noundef null, i32 noundef %18)
  br label %24

19:                                               ; preds = %3
  %20 = load ptr, ptr %8, align 8, !tbaa !105
  %21 = load ptr, ptr %4, align 8, !tbaa !102
  %22 = load ptr, ptr %5, align 8, !tbaa !3
  %23 = load i32, ptr %6, align 4, !tbaa !104
  call void @CecG_ManSatSolve(ptr noundef %20, ptr noundef %21, ptr noundef %22, i32 noundef %23)
  br label %24

24:                                               ; preds = %19, %14
  %25 = load ptr, ptr %4, align 8, !tbaa !102
  %26 = call ptr @Gia_ManCleanup(ptr noundef %25)
  store ptr %26, ptr %7, align 8, !tbaa !102
  %27 = load ptr, ptr %8, align 8, !tbaa !105
  call void @Cec_ManPatStop(ptr noundef %27)
  %28 = load ptr, ptr %4, align 8, !tbaa !102
  %29 = getelementptr inbounds nuw %struct.Gia_Man_t_, ptr %28, i32 0, i32 52
  %30 = load ptr, ptr %29, align 8, !tbaa !107
  %31 = load ptr, ptr %7, align 8, !tbaa !102
  %32 = getelementptr inbounds nuw %struct.Gia_Man_t_, ptr %31, i32 0, i32 52
  store ptr %30, ptr %32, align 8, !tbaa !107
  %33 = load ptr, ptr %4, align 8, !tbaa !102
  %34 = getelementptr inbounds nuw %struct.Gia_Man_t_, ptr %33, i32 0, i32 52
  store ptr null, ptr %34, align 8, !tbaa !107
  %35 = load ptr, ptr %7, align 8, !tbaa !102
  call void @llvm.lifetime.end.p0(i64 8, ptr %8) #10
  call void @llvm.lifetime.end.p0(i64 8, ptr %7) #10
  ret ptr %35
}