; Function Attrs: nounwind uwtable
define ptr @Cec_ManSatSolving(ptr noundef %0, ptr noundef %1, i32 noundef %2) local_unnamed_addr #2 {
  %4 = tail call ptr (...) @Cec_ManPatStart() #14
  %5 = load i32, ptr %1, align 4, !tbaa !3
  %6 = icmp eq i32 %5, -1
  br i1 %6, label %7, label %8

7:                                                ; preds = %3
  tail call void @Cec_ManSatSolve(ptr noundef %4, ptr noundef %0, ptr noundef nonnull %1, ptr noundef null, ptr noundef null, ptr noundef null, i32 noundef %2) #14
  br label %9

8:                                                ; preds = %3
  tail call void @CecG_ManSatSolve(ptr noundef %4, ptr noundef %0, ptr noundef nonnull %1, i32 noundef %2) #14
  br label %9

9:                                                ; preds = %8, %7
  %10 = tail call ptr @Gia_ManCleanup(ptr noundef %0) #14
  tail call void @Cec_ManPatStop(ptr noundef %4) #14
  %11 = getelementptr inbounds nuw i8, ptr %0, i64 384
  %12 = load ptr, ptr %11, align 8, !tbaa !68
  %13 = getelementptr inbounds nuw i8, ptr %10, i64 384
  store ptr %12, ptr %13, align 8, !tbaa !68
  store ptr null, ptr %11, align 8, !tbaa !68
  ret ptr %10
}